; Function Attrs: nounwind uwtable
define range(i32 -1, 1) i32 @evtag_payload_length(ptr noundef %0, ptr noundef writeonly captures(none) %1) local_unnamed_addr #1 {
  %3 = tail call i64 @evbuffer_get_length(ptr noundef %0) #7
  %4 = tail call i64 @llvm.umin.i64(i64 %3, i64 5)
  %5 = tail call ptr @evbuffer_pullup(ptr noundef %0, i64 noundef %4) #7
  %.not.i = icmp eq ptr %5, null
  br i1 %.not.i, label %decode_tag_internal.exit.thread, label %.preheader.i

.preheader.i:                                     ; preds = %2, %13
  %.033.i = phi ptr [ %8, %13 ], [ %5, %2 ]
  %.032.i = phi i64 [ %6, %13 ], [ 0, %2 ]
  %.030.i = phi i32 [ %14, %13 ], [ 0, %2 ]
  %6 = add i64 %.032.i, 1
  %exitcond.not.i = icmp eq i64 %.032.i, %3
  br i1 %exitcond.not.i, label %decode_tag_internal.exit.thread, label %7

7:                                                ; preds = %.preheader.i
  %8 = getelementptr inbounds nuw i8, ptr %.033.i, i64 1
  %9 = load i8, ptr %.033.i, align 1
  %10 = icmp samesign ugt i32 %.030.i, 27
  br i1 %10, label %11, label %13

11:                                               ; preds = %7
  %.not39.i = icmp eq i32 %.030.i, 28
  %12 = and i8 %9, 112
  %.not40.i = icmp eq i8 %12, 0
  %or.cond.i = select i1 %.not39.i, i1 %.not40.i, i1 false
  br i1 %or.cond.i, label %13, label %decode_tag_internal.exit.thread

13:                                               ; preds = %11, %7
  %14 = add nuw nsw i32 %.030.i, 7
  %.not41.i = icmp sgt i8 %9, -1
  br i1 %.not41.i, label %.thread49.i, label %.preheader.i

.thread49.i:                                      ; preds = %13
  %.not54.le.i = icmp ult i64 %.032.i, %3
  br i1 %.not54.le.i, label %decode_tag_internal.exit, label %decode_tag_internal.exit.thread

decode_tag_internal.exit:                         ; preds = %.thread49.i
  %15 = tail call i64 @llvm.umin.i64(i64 %6, i64 2147483647)
  %16 = tail call i64 @evbuffer_get_length(ptr noundef %0) #7
  %17 = sub i64 %16, %15
  %18 = icmp slt i64 %17, 1
  br i1 %18, label %decode_tag_internal.exit.thread, label %19

19:                                               ; preds = %decode_tag_internal.exit
  %20 = add nuw nsw i64 %15, 1
  %21 = tail call ptr @evbuffer_pullup(ptr noundef %0, i64 noundef %20) #7
  %.not.i7 = icmp eq ptr %21, null
  br i1 %.not.i7, label %decode_tag_internal.exit.thread, label %22

22:                                               ; preds = %19
  %23 = getelementptr inbounds nuw i8, ptr %21, i64 %15
  %24 = load i8, ptr %23, align 1
  %25 = lshr i8 %24, 4
  %narrow.i = add nuw nsw i8 %25, 1
  %26 = zext nneg i8 %narrow.i to i32
  %27 = icmp slt i8 %24, 0
  br i1 %27, label %decode_tag_internal.exit.thread, label %28

28:                                               ; preds = %22
  %29 = lshr i32 %26, 1
  %30 = add nuw nsw i32 %29, 1
  %31 = zext nneg i32 %30 to i64
  %32 = icmp samesign ult i64 %17, %31
  br i1 %32, label %decode_tag_internal.exit.thread, label %33

33:                                               ; preds = %28
  %34 = add nuw nsw i64 %15, %31
  %35 = tail call ptr @evbuffer_pullup(ptr noundef %0, i64 noundef %34) #7
  %36 = getelementptr inbounds nuw i8, ptr %35, i64 %15
  %.not36.i = icmp eq ptr %35, null
  br i1 %.not36.i, label %decode_tag_internal.exit.thread, label %.preheader.i8

.preheader.i8:                                    ; preds = %33, %.preheader.i8
  %.039.i = phi i32 [ %45, %.preheader.i8 ], [ %26, %33 ]
  %.03038.i = phi i32 [ %.1.i, %.preheader.i8 ], [ 0, %33 ]
  %37 = shl i32 %.03038.i, 4
  %38 = and i32 %.039.i, 1
  %.not37.i = icmp eq i32 %38, 0
  %39 = lshr i32 %.039.i, 1
  %40 = zext nneg i32 %39 to i64
  %41 = getelementptr inbounds nuw i8, ptr %36, i64 %40
  %42 = load i8, ptr %41, align 1
  %43 = and i8 %42, 15
  %44 = lshr i8 %42, 4
  %.pn.in.i = select i1 %.not37.i, i8 %44, i8 %43
  %.pn.i = zext nneg i8 %.pn.in.i to i32
  %.1.i = or disjoint i32 %37, %.pn.i
  %45 = add nsw i32 %.039.i, -1
  %46 = icmp samesign ugt i32 %.039.i, 1
  br i1 %46, label %.preheader.i8, label %decode_int_internal.exit, !llvm.loop !7

decode_int_internal.exit:                         ; preds = %.preheader.i8
  store i32 %.1.i, ptr %1, align 4
  br label %decode_tag_internal.exit.thread

decode_tag_internal.exit.thread:                  ; preds = %.preheader.i, %11, %decode_tag_internal.exit, %19, %28, %22, %33, %decode_int_internal.exit, %.thread49.i, %2
  %.0 = phi i32 [ 0, %decode_int_internal.exit ], [ -1, %2 ], [ -1, %.thread49.i ], [ -1, %33 ], [ -1, %22 ], [ -1, %28 ], [ -1, %19 ], [ -1, %decode_tag_internal.exit ], [ -1, %11 ], [ -1, %.preheader.i ]
  ret i32 %.0
}